target datalayout = "e-m:e-p270:32:32-p271:32:32-p272:64:64-i64:64-i128:128-f80:128-n8:16:32:64-S128"
target triple = "x86_64-pc-linux-gnu"

%struct.RelationData = type { %struct.RelFileLocator, ptr, i32, i32, i8, i8, i8, i8, i8, i32, i32, i32, i32, ptr, ptr, i32, %struct.LockInfoData, ptr, ptr, ptr, ptr, ptr, i8, ptr, ptr, ptr, ptr, ptr, ptr, i32, ptr, i8, ptr, ptr, i32, i8, i32, ptr, i8, ptr, ptr, ptr, ptr, ptr, ptr, ptr, i32, ptr, ptr, ptr, ptr, ptr, ptr, ptr, ptr, ptr, ptr, ptr, ptr, ptr, ptr, ptr, ptr, ptr, ptr, ptr, i32, i8, ptr }
%struct.RelFileLocator = type { i32, i32, i32 }
%struct.LockInfoData = type { %struct.LockRelId }
%struct.LockRelId = type { i32, i32 }
%struct.PartitionDirectoryData = type { ptr, ptr, i8 }
%struct.PartitionDirectoryEntry = type { i32, ptr, ptr }

; Function Attrs: nounwind uwtable
define dso_local ptr @PartitionDirectoryLookup(ptr noundef %0, ptr noundef %1) #0 {
  %3 = alloca ptr, align 8
  %4 = alloca ptr, align 8
  %5 = alloca ptr, align 8
  %6 = alloca i32, align 4
  %7 = alloca i8, align 1
  store ptr %0, ptr %3, align 8
  store ptr %1, ptr %4, align 8
  call void @llvm.lifetime.start.p0(i64 8, ptr %5) #7
  call void @llvm.lifetime.start.p0(i64 4, ptr %6) #7
  %8 = load ptr, ptr %4, align 8
  %9 = getelementptr inbounds nuw %struct.RelationData, ptr %8, i32 0, i32 15
  %10 = load i32, ptr %9, align 8
  store i32 %10, ptr %6, align 4
  call void @llvm.lifetime.start.p0(i64 1, ptr %7) #7
  %11 = load ptr, ptr %3, align 8
  %12 = getelementptr inbounds nuw %struct.PartitionDirectoryData, ptr %11, i32 0, i32 1
  %13 = load ptr, ptr %12, align 8
  %14 = call ptr @hash_search(ptr noundef %13, ptr noundef %6, i32 noundef 1, ptr noundef %7)
  store ptr %14, ptr %5, align 8
  %15 = load i8, ptr %7, align 1, !range !4, !noundef !5
  %16 = trunc i8 %15 to i1
  br i1 %16, label %30, label %17

17:                                               ; preds = %2
  %18 = load ptr, ptr %4, align 8
  call void @RelationIncrementReferenceCount(ptr noundef %18)
  %19 = load ptr, ptr %4, align 8
  %20 = load ptr, ptr %5, align 8
  %21 = getelementptr inbounds nuw %struct.PartitionDirectoryEntry, ptr %20, i32 0, i32 1
  store ptr %19, ptr %21, align 8
  %22 = load ptr, ptr %4, align 8
  %23 = load ptr, ptr %3, align 8
  %24 = getelementptr inbounds nuw %struct.PartitionDirectoryData, ptr %23, i32 0, i32 2
  %25 = load i8, ptr %24, align 8, !range !4, !noundef !5
  %26 = trunc i8 %25 to i1
  %27 = call ptr @RelationGetPartitionDesc(ptr noundef %22, i1 noundef zeroext %26)
  %28 = load ptr, ptr %5, align 8
  %29 = getelementptr inbounds nuw %struct.PartitionDirectoryEntry, ptr %28, i32 0, i32 2
  store ptr %27, ptr %29, align 8
  br label %30

30:                                               ; preds = %17, %2
  %31 = load ptr, ptr %5, align 8
  %32 = getelementptr inbounds nuw %struct.PartitionDirectoryEntry, ptr %31, i32 0, i32 2
  %33 = load ptr, ptr %32, align 8
  call void @llvm.lifetime.end.p0(i64 1, ptr %7) #7
  call void @llvm.lifetime.end.p0(i64 4, ptr %6) #7
  call void @llvm.lifetime.end.p0(i64 8, ptr %5) #7
  ret ptr %33
}