; Function Attrs: nounwind uwtable
define dso_local ptr @PartitionDirectoryLookup(ptr noundef readonly captures(none) %0, ptr noundef %1) local_unnamed_addr #0 {
  %3 = alloca i32, align 4
  %4 = alloca i8, align 1
  call void @llvm.lifetime.start.p0(i64 4, ptr nonnull %3) #6
  %5 = getelementptr inbounds nuw i8, ptr %1, i64 72
  %6 = load i32, ptr %5, align 8
  store i32 %6, ptr %3, align 4
  call void @llvm.lifetime.start.p0(i64 1, ptr nonnull %4) #6
  %7 = getelementptr inbounds nuw i8, ptr %0, i64 8
  %8 = load ptr, ptr %7, align 8
  %9 = call ptr @hash_search(ptr noundef %8, ptr noundef nonnull %3, i32 noundef 1, ptr noundef nonnull %4) #6
  %10 = load i8, ptr %4, align 1, !range !4, !noundef !5
  %11 = trunc nuw i8 %10 to i1
  br i1 %11, label %._crit_edge, label %12

._crit_edge:                                      ; preds = %2
  %.phi.trans.insert = getelementptr inbounds nuw i8, ptr %9, i64 16
  %.pre = load ptr, ptr %.phi.trans.insert, align 8
  br label %19

12:                                               ; preds = %2
  call void @RelationIncrementReferenceCount(ptr noundef nonnull %1) #6
  %13 = getelementptr inbounds nuw i8, ptr %9, i64 8
  store ptr %1, ptr %13, align 8
  %14 = getelementptr inbounds nuw i8, ptr %0, i64 16
  %15 = load i8, ptr %14, align 8, !range !4, !noundef !5
  %16 = trunc nuw i8 %15 to i1
  %17 = call ptr @RelationGetPartitionDesc(ptr noundef nonnull %1, i1 noundef zeroext %16)
  %18 = getelementptr inbounds nuw i8, ptr %9, i64 16
  store ptr %17, ptr %18, align 8
  br label %19

19:                                               ; preds = %._crit_edge, %12
  %20 = phi ptr [ %.pre, %._crit_edge ], [ %17, %12 ]
  call void @llvm.lifetime.end.p0(i64 1, ptr nonnull %4) #6
  call void @llvm.lifetime.end.p0(i64 4, ptr nonnull %3) #6
  ret ptr %20
}